
========================================================================

** ELF Header Information

    File Name: boot\boot.axf

    Machine class: ELFCLASS32 (32-bit)
    Data encoding: ELFDATA2LSB (Little endian)
    Header version: EV_CURRENT (Current version)
    Operating System ABI: none
    ABI Version: 0
    File Type: ET_EXEC (Executable) (2)
    Machine: EM_ARM (ARM)

    Image Entry point: 0x08000011
    Flags: EF_ARM_HASENTRY + EF_ARM_ABI_FLOAT_SOFT (0x05000202)

    ARM ELF revision: 5 (ABI version 2)

    Conforms to Soft float procedure-call standard

    Built with
    Component: ARM Compiler 5.06 update 6 (build 750) Tool: armasm [4d35ec]
    Component: ARM Compiler 5.06 update 6 (build 750) Tool: armlink [4d35ed]

    Header size: 52 bytes (0x34)
    Program header entry size: 32 bytes (0x20)
    Section header entry size: 40 bytes (0x28)

    Program header entries: 1
    Section header entries: 15

    Program header offset: 409256 (0x00063ea8)
    Section header offset: 409288 (0x00063ec8)

    Section header string table index: 14

========================================================================

** Program header #0 (PT_LOAD) [PF_X + PF_W + PF_R + PF_ARM_ENTRY]
    Size : 1976 bytes (1112 bytes in file)
    Virtual address: 0x08000000 (Alignment 8)


========================================================================

** Section #1 'ER_IROM1' (SHT_PROGBITS) [SHF_ALLOC + SHF_EXECINSTR]
    Size   : 1112 bytes (alignment 4)
    Address: 0x08000000

    $d.realdata
    RESET
    __Vectors
        0x08000000:    20000360    `..     DCD    536871776
        0x08000004:    08000095    ....    DCD    134217877
        0x08000008:    080001f3    ....    DCD    134218227
        0x0800000c:    08000195    ....    DCD    134218133
    $t
    !!!main
    __Vectors_End
    __main
        0x08000010:    f000f802    ....    BL       __scatterload ; 0x8000018
        0x08000014:    f000f82c    ..,.    BL       __rt_entry ; 0x8000070
    !!!scatter
    __scatterload
    __scatterload_rt2
    __scatterload_rt2_thumb_only
        0x08000018:    a00a        ..      ADR      r0,{pc}+0x2c ; 0x8000044
        0x0800001a:    e8900c00    ....    LDM      r0,{r10,r11}
        0x0800001e:    4482        .D      ADD      r10,r10,r0
        0x08000020:    4483        .D      ADD      r11,r11,r0
        0x08000022:    f1aa0701    ....    SUB      r7,r10,#1
    __scatterload_null
        0x08000026:    45da        .E      CMP      r10,r11
        0x08000028:    d101        ..      BNE      0x800002e ; __scatterload_null + 8
        0x0800002a:    f000f821    ..!.    BL       __rt_entry ; 0x8000070
        0x0800002e:    f2af0e09    ....    ADR      lr,{pc}-7 ; 0x8000027
        0x08000032:    e8ba000f    ....    LDM      r10!,{r0-r3}
        0x08000036:    f0130f01    ....    TST      r3,#1
        0x0800003a:    bf18        ..      IT       NE
        0x0800003c:    1afb        ..      SUBNE    r3,r7,r3
        0x0800003e:    f0430301    C...    ORR      r3,r3,#1
        0x08000042:    4718        .G      BX       r3
    $d
        0x08000044:    00000404    ....    DCD    1028
        0x08000048:    00000414    ....    DCD    1044
    $t
    !!handler_zi
    __scatterload_zeroinit
        0x0800004c:    2300        .#      MOVS     r3,#0
        0x0800004e:    2400        .$      MOVS     r4,#0
        0x08000050:    2500        .%      MOVS     r5,#0
        0x08000052:    2600        .&      MOVS     r6,#0
        0x08000054:    3a10        .:      SUBS     r2,r2,#0x10
        0x08000056:    bf28        (.      IT       CS
        0x08000058:    c178        x.      STMCS    r1!,{r3-r6}
        0x0800005a:    d8fb        ..      BHI      0x8000054 ; __scatterload_zeroinit + 8
        0x0800005c:    0752        R.      LSLS     r2,r2,#29
        0x0800005e:    bf28        (.      IT       CS
        0x08000060:    c130        0.      STMCS    r1!,{r4,r5}
        0x08000062:    bf48        H.      IT       MI
        0x08000064:    600b        .`      STRMI    r3,[r1,#0]
        0x08000066:    4770        pG      BX       lr
    .ARM.Collect$$libinit$$00000000
    __rt_lib_init
        0x08000068:    b51f        ..      PUSH     {r0-r4,lr}
    .ARM.Collect$$libinit$$00000002
    .ARM.Collect$$libinit$$00000004
    .ARM.Collect$$libinit$$0000000A
    .ARM.Collect$$libinit$$0000000C
    .ARM.Collect$$libinit$$0000000E
    .ARM.Collect$$libinit$$00000011
    .ARM.Collect$$libinit$$00000013
    .ARM.Collect$$libinit$$00000015
    .ARM.Collect$$libinit$$00000017
    .ARM.Collect$$libinit$$00000019
    .ARM.Collect$$libinit$$0000001B
    .ARM.Collect$$libinit$$0000001D
    .ARM.Collect$$libinit$$0000001F
    .ARM.Collect$$libinit$$00000021
    .ARM.Collect$$libinit$$00000023
    .ARM.Collect$$libinit$$00000025
    .ARM.Collect$$libinit$$0000002C
    .ARM.Collect$$libinit$$0000002E
    .ARM.Collect$$libinit$$00000030
    .ARM.Collect$$libinit$$00000032
    .ARM.Collect$$libinit$$00000033
    __rt_lib_init_alloca_1
    __rt_lib_init_argv_1
    __rt_lib_init_atexit_1
    __rt_lib_init_clock_1
    __rt_lib_init_cpp_1
    __rt_lib_init_exceptions_1
    __rt_lib_init_fp_1
    __rt_lib_init_fp_trap_1
    __rt_lib_init_getenv_1
    __rt_lib_init_heap_1
    __rt_lib_init_lc_collate_1
    __rt_lib_init_lc_ctype_1
    __rt_lib_init_lc_monetary_1
    __rt_lib_init_lc_numeric_1
    __rt_lib_init_lc_time_1
    __rt_lib_init_preinit_1
    __rt_lib_init_rand_1
    __rt_lib_init_return
    __rt_lib_init_signal_1
    __rt_lib_init_stdio_1
    __rt_lib_init_user_alloc_1
        0x0800006a:    bd1f        ..      POP      {r0-r4,pc}
    .ARM.Collect$$libshutdown$$00000000
    __rt_lib_shutdown
        0x0800006c:    b510        ..      PUSH     {r4,lr}
    .ARM.Collect$$libshutdown$$00000002
    .ARM.Collect$$libshutdown$$00000004
    .ARM.Collect$$libshutdown$$00000007
    .ARM.Collect$$libshutdown$$0000000A
    .ARM.Collect$$libshutdown$$0000000C
    .ARM.Collect$$libshutdown$$0000000F
    .ARM.Collect$$libshutdown$$00000010
    __rt_lib_shutdown_cpp_1
    __rt_lib_shutdown_fp_trap_1
    __rt_lib_shutdown_heap_1
    __rt_lib_shutdown_return
    __rt_lib_shutdown_signal_1
    __rt_lib_shutdown_stdio_1
    __rt_lib_shutdown_user_alloc_1
        0x0800006e:    bd10        ..      POP      {r4,pc}
    .ARM.Collect$$rtentry$$00000000
    .ARM.Collect$$rtentry$$00000002
    .ARM.Collect$$rtentry$$00000004
    __rt_entry
    __rt_entry_presh_1
    __rt_entry_sh
        0x08000070:    f000f83d    ..=.    BL       __user_setup_stackheap ; 0x80000ee
        0x08000074:    4611        .F      MOV      r1,r2
    .ARM.Collect$$rtentry$$00000009
    .ARM.Collect$$rtentry$$0000000A
    __rt_entry_li
    __rt_entry_postsh_1
        0x08000076:    f7fffff7    ....    BL       __rt_lib_init ; 0x8000068
    .ARM.Collect$$rtentry$$0000000C
    .ARM.Collect$$rtentry$$0000000D
    __rt_entry_main
    __rt_entry_postli_1
        0x0800007a:    f000f8bb    ....    BL       main ; 0x80001f4
        0x0800007e:    f000f85b    ..[.    BL       exit ; 0x8000138
    .ARM.Collect$$rtexit$$00000000
    __rt_exit
        0x08000082:    b403        ..      PUSH     {r0,r1}
    .ARM.Collect$$rtexit$$00000002
    .ARM.Collect$$rtexit$$00000003
    __rt_exit_ls
    __rt_exit_prels_1
        0x08000084:    f7fffff2    ....    BL       __rt_lib_shutdown ; 0x800006c
    .ARM.Collect$$rtexit$$00000004
    __rt_exit_exit
        0x08000088:    bc03        ..      POP      {r0,r1}
        0x0800008a:    f000f87d    ..}.    BL       _sys_exit ; 0x8000188
        0x0800008e:    0000        ..      MOVS     r0,r0
    .emb_text
    __asm___6_main_c_6624b223__prvJump
        0x08000090:    4685        .F      MOV      sp,r0
        0x08000092:    4708        .G      BX       r1
    .text
    Reset_Handler
        0x08000094:    4801        .H      LDR      r0,[pc,#4] ; [0x800009c] = 0x80001f5
        0x08000096:    4700        .G      BX       r0
        0x08000098:    e7fe        ..      B        0x8000098 ; Reset_Handler + 4
        0x0800009a:    e7fe        ..      B        0x800009a ; Reset_Handler + 6
    $d
        0x0800009c:    080001f5    ....    DCD    134218229
    $t
    .text
    __aeabi_memclr4
    __aeabi_memclr8
    __rt_memclr_w
        0x080000a0:    f04f0200    O...    MOV      r2,#0
    _memset_w
        0x080000a4:    b500        ..      PUSH     {lr}
        0x080000a6:    4613        .F      MOV      r3,r2
        0x080000a8:    4694        .F      MOV      r12,r2
        0x080000aa:    4696        .F      MOV      lr,r2
        0x080000ac:    3920         9      SUBS     r1,r1,#0x20
        0x080000ae:    bf22        ".      ITTT     CS
        0x080000b0:    e8a0500c    ...P    STMCS    r0!,{r2,r3,r12,lr}
        0x080000b4:    e8a0500c    ...P    STMCS    r0!,{r2,r3,r12,lr}
        0x080000b8:    f1b10120    .. .    SUBSCS   r1,r1,#0x20
        0x080000bc:    f4bfaff7    ....    BCS.W    0x80000ae ; _memset_w + 10
        0x080000c0:    0709        ..      LSLS     r1,r1,#28
        0x080000c2:    bf28        (.      IT       CS
        0x080000c4:    e8a0500c    ...P    STMCS    r0!,{r2,r3,r12,lr}
        0x080000c8:    bf48        H.      IT       MI
        0x080000ca:    c00c        ..      STMMI    r0!,{r2,r3}
        0x080000cc:    f85deb04    ]...    POP      {lr}
        0x080000d0:    0089        ..      LSLS     r1,r1,#2
        0x080000d2:    bf28        (.      IT       CS
        0x080000d4:    f8402b04    @..+    STRCS    r2,[r0],#4
        0x080000d8:    bf08        ..      IT       EQ
        0x080000da:    4770        pG      BXEQ     lr
        0x080000dc:    bf48        H.      IT       MI
        0x080000de:    f8202b02     ..+    STRHMI   r2,[r0],#2
        0x080000e2:    f0114f80    ...O    TST      r1,#0x40000000
        0x080000e6:    bf18        ..      IT       NE
        0x080000e8:    f8002b01    ...+    STRBNE   r2,[r0],#1
        0x080000ec:    4770        pG      BX       lr
    .text
    __user_setup_stackheap
        0x080000ee:    4675        uF      MOV      r5,lr
        0x080000f0:    f000f82c    ..,.    BL       __user_libspace ; 0x800014c
        0x080000f4:    46ae        .F      MOV      lr,r5
        0x080000f6:    0005        ..      MOVS     r5,r0
        0x080000f8:    4669        iF      MOV      r1,sp
        0x080000fa:    4653        SF      MOV      r3,r10
        0x080000fc:    f0200007     ...    BIC      r0,r0,#7
        0x08000100:    4685        .F      MOV      sp,r0
        0x08000102:    b018        ..      ADD      sp,sp,#0x60
        0x08000104:    b520         .      PUSH     {r5,lr}
        0x08000106:    f000f825    ..%.    BL       __user_initial_stackheap ; 0x8000154
        0x0800010a:    e8bd4020    .. @    POP      {r5,lr}
        0x0800010e:    f04f0600    O...    MOV      r6,#0
        0x08000112:    f04f0700    O...    MOV      r7,#0
        0x08000116:    f04f0800    O...    MOV      r8,#0
        0x0800011a:    f04f0b00    O...    MOV      r11,#0
        0x0800011e:    f0210107    !...    BIC      r1,r1,#7
        0x08000122:    46ac        .F      MOV      r12,r5
        0x08000124:    e8ac09c0    ....    STM      r12!,{r6-r8,r11}
        0x08000128:    e8ac09c0    ....    STM      r12!,{r6-r8,r11}
        0x0800012c:    e8ac09c0    ....    STM      r12!,{r6-r8,r11}
        0x08000130:    e8ac09c0    ....    STM      r12!,{r6-r8,r11}
        0x08000134:    468d        .F      MOV      sp,r1
        0x08000136:    4770        pG      BX       lr
    .text
    exit
        0x08000138:    b510        ..      PUSH     {r4,lr}
        0x0800013a:    4604        .F      MOV      r4,r0
        0x0800013c:    f3af8000    ....    NOP.W    
        0x08000140:    4620         F      MOV      r0,r4
        0x08000142:    e8bd4010    ...@    POP      {r4,lr}
        0x08000146:    f7ffbf9c    ....    B.W      __rt_exit ; 0x8000082
        0x0800014a:    0000        ..      MOVS     r0,r0
    .text
    __user_libspace
    __user_perproc_libspace
    __user_perthread_libspace
        0x0800014c:    4800        .H      LDR      r0,[pc,#0] ; [0x8000150] = 0x20000000
        0x0800014e:    4770        pG      BX       lr
    $d
        0x08000150:    20000000    ...     DCD    536870912
    $t
    .text
    __user_initial_stackheap
        0x08000154:    b500        ..      PUSH     {lr}
        0x08000156:    f04f0016    O...    MOV      r0,#0x16
        0x0800015a:    b085        ..      SUB      sp,sp,#0x14
        0x0800015c:    4669        iF      MOV      r1,sp
        0x0800015e:    aa01        ..      ADD      r2,sp,#4
        0x08000160:    600a        .`      STR      r2,[r1,#0]
        0x08000162:    beab        ..      BKPT     #0xab
        0x08000164:    9801        ..      LDR      r0,[sp,#4]
        0x08000166:    2800        .(      CMP      r0,#0
        0x08000168:    bf02        ..      ITTT     EQ
        0x0800016a:    4805        .H      LDREQ    r0,_RW_Limit ; [0x8000180] = 0
        0x0800016c:    1dc0        ..      ADDEQ    r0,r0,#7
        0x0800016e:    f0200007     ...    BICEQ    r0,r0,#7
        0x08000172:    9903        ..      LDR      r1,[sp,#0xc]
        0x08000174:    9a02        ..      LDR      r2,[sp,#8]
        0x08000176:    9b04        ..      LDR      r3,[sp,#0x10]
        0x08000178:    b005        ..      ADD      sp,sp,#0x14
        0x0800017a:    bd00        ..      POP      {pc}
    $d
        0x0800017c:    00000009    ....    DCD    9
    _RW_Limit
        0x08000180:    00000000    ....    DCD    0
    $t
    .text
    __I$use$semihosting
    __use_no_semihosting_swi
        0x08000184:    4770        pG      BX       lr
    .text
    __semihosting_library_function
        0x08000186:    0000        ..      MOVS     r0,r0
    .text
    _sys_exit
        0x08000188:    4901        .I      LDR      r1,[pc,#4] ; [0x8000190] = 0x20026
        0x0800018a:    2018        .       MOVS     r0,#0x18
        0x0800018c:    beab        ..      BKPT     #0xab
        0x0800018e:    e7fe        ..      B        0x800018e ; _sys_exit + 6
    $d
        0x08000190:    00020026    &...    DCD    131110
    $t
    i.HardFault_Handler
    HardFault_Handler
        0x08000194:    e7fe        ..      B        HardFault_Handler ; 0x8000194
        0x08000196:    0000        ..      MOVS     r0,r0
    i.LL_APB1_GRP1_EnableClock
    LL_APB1_GRP1_EnableClock
        0x08000198:    4904        .I      LDR      r1,[pc,#16] ; [0x80001ac] = 0x40021000
        0x0800019a:    b508        ..      PUSH     {r3,lr}
        0x0800019c:    69ca        .i      LDR      r2,[r1,#0x1c]
        0x0800019e:    4302        .C      ORRS     r2,r2,r0
        0x080001a0:    61ca        .a      STR      r2,[r1,#0x1c]
        0x080001a2:    69c9        .i      LDR      r1,[r1,#0x1c]
        0x080001a4:    4001        .@      ANDS     r1,r1,r0
        0x080001a6:    9100        ..      STR      r1,[sp,#0]
        0x080001a8:    bd08        ..      POP      {r3,pc}
    $d
        0x080001aa:    0000        ..      DCW    0
        0x080001ac:    40021000    ...@    DCD    1073876992
    $t
    i.LL_APB2_GRP1_EnableClock
    LL_APB2_GRP1_EnableClock
        0x080001b0:    4904        .I      LDR      r1,[pc,#16] ; [0x80001c4] = 0x40021000
        0x080001b2:    b508        ..      PUSH     {r3,lr}
        0x080001b4:    698a        .i      LDR      r2,[r1,#0x18]
        0x080001b6:    4302        .C      ORRS     r2,r2,r0
        0x080001b8:    618a        .a      STR      r2,[r1,#0x18]
        0x080001ba:    6989        .i      LDR      r1,[r1,#0x18]
        0x080001bc:    4001        .@      ANDS     r1,r1,r0
        0x080001be:    9100        ..      STR      r1,[sp,#0]
        0x080001c0:    bd08        ..      POP      {r3,pc}
    $d
        0x080001c2:    0000        ..      DCW    0
        0x080001c4:    40021000    ...@    DCD    1073876992
    $t
    i.LL_GPIO_SetPinMode
    LL_GPIO_SetPinMode
        0x080001c8:    b530        0.      PUSH     {r4,r5,lr}
        0x080001ca:    fa91f4a1    ....    RBIT     r4,r1
        0x080001ce:    eb006011    ...`    ADD      r0,r0,r1,LSR #24
        0x080001d2:    fab4f484    ....    CLZ      r4,r4
        0x080001d6:    00a5        ..      LSLS     r5,r4,#2
        0x080001d8:    240f        .$      MOVS     r4,#0xf
        0x080001da:    40ac        .@      LSLS     r4,r4,r5
        0x080001dc:    fa91f1a1    ....    RBIT     r1,r1
        0x080001e0:    6803        .h      LDR      r3,[r0,#0]
        0x080001e2:    fab1f181    ....    CLZ      r1,r1
        0x080001e6:    0089        ..      LSLS     r1,r1,#2
        0x080001e8:    43a3        .C      BICS     r3,r3,r4
        0x080001ea:    408a        .@      LSLS     r2,r2,r1
        0x080001ec:    4313        .C      ORRS     r3,r3,r2
        0x080001ee:    6003        .`      STR      r3,[r0,#0]
        0x080001f0:    bd30        0.      POP      {r4,r5,pc}
    i.NMI_Handler
    NMI_Handler
        0x080001f2:    e7fe        ..      B        NMI_Handler ; 0x80001f2
    i.main
    main
        0x080001f4:    f5ad6d01    ...m    SUB      sp,sp,#0x810
        0x080001f8:    b672        r.      CPSID    i
        0x080001fa:    2001        .       MOVS     r0,#1
        0x080001fc:    f7ffffd8    ....    BL       LL_APB2_GRP1_EnableClock ; 0x80001b0
        0x08000200:    f04f5080    O..P    MOV      r0,#0x10000000
        0x08000204:    f7ffffc8    ....    BL       LL_APB1_GRP1_EnableClock ; 0x8000198
        0x08000208:    4a3e        >J      LDR      r2,[pc,#248] ; [0x8000304] = 0x40021000
        0x0800020a:    6950        Pi      LDR      r0,[r2,#0x14]
        0x0800020c:    f0400040    @.@.    ORR      r0,r0,#0x40
        0x08000210:    6150        Pa      STR      r0,[r2,#0x14]
        0x08000212:    6950        Pi      LDR      r0,[r2,#0x14]
        0x08000214:    493c        <I      LDR      r1,[pc,#240] ; [0x8000308] = 0x8000400
        0x08000216:    f0000040    ..@.    AND      r0,r0,#0x40
        0x0800021a:    9000        ..      STR      r0,[sp,#0]
        0x0800021c:    f04f2008    O..     MOV      r0,#0x8000800
        0x08000220:    2400        .$      MOVS     r4,#0
        0x08000222:    f24a535a    J.ZS    MOV      r3,#0xa55a
        0x08000226:    e000        ..      B        0x800022a ; main + 54
        0x08000228:    3110        .1      ADDS     r1,r1,#0x10
        0x0800022a:    880d        ..      LDRH     r5,[r1,#0]
        0x0800022c:    429d        .B      CMP      r5,r3
        0x0800022e:    d102        ..      BNE      0x8000236 ; main + 66
        0x08000230:    4281        .B      CMP      r1,r0
        0x08000232:    d3f9        ..      BCC      0x8000228 ; main + 52
        0x08000234:    e04a        J.      B        0x80002cc ; main + 216
        0x08000236:    4281        .B      CMP      r1,r0
        0x08000238:    d248        H.      BCS      0x80002cc ; main + 216
        0x0800023a:    9400        ..      STR      r4,[sp,#0]
        0x0800023c:    9401        ..      STR      r4,[sp,#4]
        0x0800023e:    9402        ..      STR      r4,[sp,#8]
        0x08000240:    9403        ..      STR      r4,[sp,#0xc]
        0x08000242:    8888        ..      LDRH     r0,[r1,#4]
        0x08000244:    f04f6500    O..e    MOV      r5,#0x8000000
        0x08000248:    eb052080    ...     ADD      r0,r5,r0,LSL #10
        0x0800024c:    9000        ..      STR      r0,[sp,#0]
        0x0800024e:    88c8        ..      LDRH     r0,[r1,#6]
        0x08000250:    0280        ..      LSLS     r0,r0,#10
        0x08000252:    9001        ..      STR      r0,[sp,#4]
        0x08000254:    8908        ..      LDRH     r0,[r1,#8]
        0x08000256:    eb052080    ...     ADD      r0,r5,r0,LSL #10
        0x0800025a:    9002        ..      STR      r0,[sp,#8]
        0x0800025c:    8948        H.      LDRH     r0,[r1,#0xa]
        0x0800025e:    0280        ..      LSLS     r0,r0,#10
        0x08000260:    9003        ..      STR      r0,[sp,#0xc]
        0x08000262:    6a56        Vj      LDR      r6,[r2,#0x24]
        0x08000264:    6a50        Pj      LDR      r0,[r2,#0x24]
        0x08000266:    f0407080    @..p    ORR      r0,r0,#0x1000000
        0x0800026a:    6250        Pb      STR      r0,[r2,#0x24]
        0x0800026c:    9800        ..      LDR      r0,[sp,#0]
        0x0800026e:    f1a06000    ...`    SUB      r0,r0,#0x8000000
        0x08000272:    f5b03f80    ...?    CMP      r0,#0x10000
        0x08000276:    d229        ).      BCS      0x80002cc ; main + 216
        0x08000278:    4924        $I      LDR      r1,[pc,#144] ; [0x800030c] = 0x8010000
        0x0800027a:    9802        ..      LDR      r0,[sp,#8]
        0x0800027c:    4288        .B      CMP      r0,r1
        0x0800027e:    d225        %.      BCS      0x80002cc ; main + 216
        0x08000280:    42a8        .B      CMP      r0,r5
        0x08000282:    d323        #.      BCC      0x80002cc ; main + 216
        0x08000284:    4668        hF      MOV      r0,sp
        0x08000286:    f000f849    ..I.    BL       prvCheckCrc ; 0x800031c
        0x0800028a:    b9f8        ..      CBNZ     r0,0x80002cc ; main + 216
        0x0800028c:    00f0        ..      LSLS     r0,r6,#3
        0x0800028e:    d514        ..      BPL      0x80002ba ; main + 198
        0x08000290:    4628        (F      MOV      r0,r5
        0x08000292:    f7ffff81    ....    BL       LL_APB1_GRP1_EnableClock ; 0x8000198
        0x08000296:    481e        .H      LDR      r0,[pc,#120] ; [0x8000310] = 0x40006c04
        0x08000298:    6800        .h      LDR      r0,[r0,#0]
        0x0800029a:    b280        ..      UXTH     r0,r0
        0x0800029c:    f5b07f81    ....    CMP      r0,#0x102
        0x080002a0:    d004        ..      BEQ      0x80002ac ; main + 184
        0x080002a2:    f5a07000    ...p    SUB      r0,r0,#0x200
        0x080002a6:    3801        .8      SUBS     r0,#1
        0x080002a8:    d107        ..      BNE      0x80002ba ; main + 198
        0x080002aa:    e001        ..      B        0x80002b0 ; main + 188
        0x080002ac:    9802        ..      LDR      r0,[sp,#8]
        0x080002ae:    e000        ..      B        0x80002b2 ; main + 190
        0x080002b0:    9800        ..      LDR      r0,[sp,#0]
        0x080002b2:    6901        .i      LDR      r1,[r0,#0x10]
        0x080002b4:    6800        .h      LDR      r0,[r0,#0]
        0x080002b6:    f7fffeeb    ....    BL       __asm___6_main_c_6624b223__prvJump ; 0x8000090
        0x080002ba:    f04f400c    O..@    MOV      r0,#0x8c000000
        0x080002be:    43b0        .C      BICS     r0,r0,r6
        0x080002c0:    d104        ..      BNE      0x80002cc ; main + 216
        0x080002c2:    9802        ..      LDR      r0,[sp,#8]
        0x080002c4:    6901        .i      LDR      r1,[r0,#0x10]
        0x080002c6:    6800        .h      LDR      r0,[r0,#0]
        0x080002c8:    f7fffee2    ....    BL       __asm___6_main_c_6624b223__prvJump ; 0x8000090
        0x080002cc:    f000f862    ..b.    BL       prvConfigUsart1 ; 0x8000394
        0x080002d0:    4d10        .M      LDR      r5,[pc,#64] ; [0x8000314] = 0x7e524b45
        0x080002d2:    4e11        .N      LDR      r6,[pc,#68] ; [0x8000318] = 0x40013800
        0x080002d4:    f44f6801    O..h    MOV      r8,#0x810
        0x080002d8:    af02        ..      ADD      r7,sp,#8
        0x080002da:    4641        AF      MOV      r1,r8
        0x080002dc:    4668        hF      MOV      r0,sp
        0x080002de:    f7fffedf    ....    BL       __aeabi_memclr4 ; 0x80000a0
        0x080002e2:    e006        ..      B        0x80002f2 ; main + 254
        0x080002e4:    9400        ..      STR      r4,[sp,#0]
        0x080002e6:    2208        ."      MOVS     r2,#8
        0x080002e8:    4669        iF      MOV      r1,sp
        0x080002ea:    4630        0F      MOV      r0,r6
        0x080002ec:    9401        ..      STR      r4,[sp,#4]
        0x080002ee:    f000f89f    ....    BL       prvUsartReceiveData ; 0x8000430
        0x080002f2:    9800        ..      LDR      r0,[sp,#0]
        0x080002f4:    42a8        .B      CMP      r0,r5
        0x080002f6:    d1f5        ..      BNE      0x80002e4 ; main + 240
        0x080002f8:    4639        9F      MOV      r1,r7
        0x080002fa:    4630        0F      MOV      r0,r6
        0x080002fc:    9a01        ..      LDR      r2,[sp,#4]
        0x080002fe:    f000f897    ....    BL       prvUsartReceiveData ; 0x8000430
        0x08000302:    e7ea        ..      B        0x80002da ; main + 230
    $d
        0x08000304:    40021000    ...@    DCD    1073876992
        0x08000308:    08000400    ....    DCD    134218752
        0x0800030c:    08010000    ....    DCD    134283264
        0x08000310:    40006c04    .l.@    DCD    1073769476
        0x08000314:    7e524b45    EKR~    DCD    2119322437
        0x08000318:    40013800    .8.@    DCD    1073821696
    $t
    i.prvCheckCrc
    prvCheckCrc
        0x0800031c:    e92d43ff    -..C    PUSH     {r0-r9,lr}
        0x08000320:    4601        .F      MOV      r1,r0
        0x08000322:    2000        .       MOVS     r0,#0
        0x08000324:    680a        .h      LDR      r2,[r1,#0]
        0x08000326:    9200        ..      STR      r2,[sp,#0]
        0x08000328:    688a        .h      LDR      r2,[r1,#8]
        0x0800032a:    9201        ..      STR      r2,[sp,#4]
        0x0800032c:    684a        Jh      LDR      r2,[r1,#4]
        0x0800032e:    9202        ..      STR      r2,[sp,#8]
        0x08000330:    68c9        .h      LDR      r1,[r1,#0xc]
        0x08000332:    9103        ..      STR      r1,[sp,#0xc]
        0x08000334:    4a16        .J      LDR      r2,[pc,#88] ; [0x8000390] = 0x40023000
        0x08000336:    4601        .F      MOV      r1,r0
        0x08000338:    f04f38ff    O..8    MOV      r8,#0xffffffff
        0x0800033c:    466b        kF      MOV      r3,sp
        0x0800033e:    f10d0908    ....    ADD      r9,sp,#8
        0x08000342:    6894        .h      LDR      r4,[r2,#8]
        0x08000344:    f0440401    D...    ORR      r4,r4,#1
        0x08000348:    6094        .`      STR      r4,[r2,#8]
        0x0800034a:    f8596021    Y.!`    LDR      r6,[r9,r1,LSL #2]
        0x0800034e:    2400        .$      MOVS     r4,#0
        0x08000350:    eb080c96    ....    ADD      r12,r8,r6,LSR #2
        0x08000354:    e007        ..      B        0x8000366 ; prvCheckCrc + 74
        0x08000356:    bf00        ..      NOP      
        0x08000358:    f8537021    S.!p    LDR      r7,[r3,r1,LSL #2]
        0x0800035c:    cf20         .      LDM      r7!,{r5}
        0x0800035e:    6015        .`      STR      r5,[r2,#0]
        0x08000360:    f8437021    C.!p    STR      r7,[r3,r1,LSL #2]
        0x08000364:    1c64        d.      ADDS     r4,r4,#1
        0x08000366:    45a4        .E      CMP      r12,r4
        0x08000368:    d8f6        ..      BHI      0x8000358 ; prvCheckCrc + 60
        0x0800036a:    f8534021    S.!@    LDR      r4,[r3,r1,LSL #2]
        0x0800036e:    6815        .h      LDR      r5,[r2,#0]
        0x08000370:    4434        4D      ADD      r4,r4,r6
        0x08000372:    1f24        $.      SUBS     r4,r4,#4
        0x08000374:    f0240404    $...    BIC      r4,r4,#4
        0x08000378:    42a5        .B      CMP      r5,r4
        0x0800037a:    d003        ..      BEQ      0x8000384 ; prvCheckCrc + 104
        0x0800037c:    2401        .$      MOVS     r4,#1
        0x0800037e:    408c        .@      LSLS     r4,r4,r1
        0x08000380:    4304        .C      ORRS     r4,r4,r0
        0x08000382:    b2e0        ..      UXTB     r0,r4
        0x08000384:    1c49        I.      ADDS     r1,r1,#1
        0x08000386:    2902        .)      CMP      r1,#2
        0x08000388:    dbdb        ..      BLT      0x8000342 ; prvCheckCrc + 38
        0x0800038a:    b004        ..      ADD      sp,sp,#0x10
        0x0800038c:    e8bd83f0    ....    POP      {r4-r9,pc}
    $d
        0x08000390:    40023000    .0.@    DCD    1073885184
    $t
    i.prvConfigUsart1
    prvConfigUsart1
        0x08000394:    b570        p.      PUSH     {r4-r6,lr}
        0x08000396:    f44f4080    O..@    MOV      r0,#0x4000
        0x0800039a:    f7ffff09    ....    BL       LL_APB2_GRP1_EnableClock ; 0x80001b0
        0x0800039e:    2004        .       MOVS     r0,#4
        0x080003a0:    f7ffff06    ....    BL       LL_APB2_GRP1_EnableClock ; 0x80001b0
        0x080003a4:    4c1e        .L      LDR      r4,[pc,#120] ; [0x8000420] = 0x4020002
        0x080003a6:    4d1f        .M      LDR      r5,[pc,#124] ; [0x8000424] = 0x40010800
        0x080003a8:    2209        ."      MOVS     r2,#9
        0x080003aa:    4621        !F      MOV      r1,r4
        0x080003ac:    4628        (F      MOV      r0,r5
        0x080003ae:    f7ffff0b    ....    BL       LL_GPIO_SetPinMode ; 0x80001c8
        0x080003b2:    1d2a        *.      ADDS     r2,r5,#4
        0x080003b4:    fa94f0a4    ....    RBIT     r0,r4
        0x080003b8:    fab0f080    ....    CLZ      r0,r0
        0x080003bc:    0083        ..      LSLS     r3,r0,#2
        0x080003be:    2003        .       MOVS     r0,#3
        0x080003c0:    6811        .h      LDR      r1,[r2,#0]
        0x080003c2:    fa00f303    ....    LSL      r3,r0,r3
        0x080003c6:    4399        .C      BICS     r1,r1,r3
        0x080003c8:    fa94f3a4    ....    RBIT     r3,r4
        0x080003cc:    fab3f383    ....    CLZ      r3,r3
        0x080003d0:    009b        ..      LSLS     r3,r3,#2
        0x080003d2:    4098        .@      LSLS     r0,r0,r3
        0x080003d4:    fa94f3a4    ....    RBIT     r3,r4
        0x080003d8:    fab3f383    ....    CLZ      r3,r3
        0x080003dc:    009e        ..      LSLS     r6,r3,#2
        0x080003de:    4301        .C      ORRS     r1,r1,r0
        0x080003e0:    2304        .#      MOVS     r3,#4
        0x080003e2:    40b3        .@      LSLS     r3,r3,r6
        0x080003e4:    4399        .C      BICS     r1,r1,r3
        0x080003e6:    fa94f3a4    ....    RBIT     r3,r4
        0x080003ea:    fab3f383    ....    CLZ      r3,r3
        0x080003ee:    2000        .       MOVS     r0,#0
        0x080003f0:    009b        ..      LSLS     r3,r3,#2
        0x080003f2:    4098        .@      LSLS     r0,r0,r3
        0x080003f4:    4301        .C      ORRS     r1,r1,r0
        0x080003f6:    6011        .`      STR      r1,[r2,#0]
        0x080003f8:    2204        ."      MOVS     r2,#4
        0x080003fa:    490b        .I      LDR      r1,[pc,#44] ; [0x8000428] = 0x4040004
        0x080003fc:    4628        (F      MOV      r0,r5
        0x080003fe:    f7fffee3    ....    BL       LL_GPIO_SetPinMode ; 0x80001c8
        0x08000402:    490a        .I      LDR      r1,[pc,#40] ; [0x800042c] = 0x4001380c
        0x08000404:    f242000c    B...    MOV      r0,#0x200c
        0x08000408:    6008        .`      STR      r0,[r1,#0]
        0x0800040a:    2000        .       MOVS     r0,#0
        0x0800040c:    1d09        ..      ADDS     r1,r1,#4
        0x0800040e:    6008        .`      STR      r0,[r1,#0]
        0x08000410:    1d09        ..      ADDS     r1,r1,#4
        0x08000412:    6008        .`      STR      r0,[r1,#0]
        0x08000414:    4905        .I      LDR      r1,[pc,#20] ; [0x800042c] = 0x4001380c
        0x08000416:    2045        E       MOVS     r0,#0x45
        0x08000418:    1f09        ..      SUBS     r1,r1,#4
        0x0800041a:    6008        .`      STR      r0,[r1,#0]
        0x0800041c:    bd70        p.      POP      {r4-r6,pc}
    $d
        0x0800041e:    0000        ..      DCW    0
        0x08000420:    04020002    ....    DCD    67239938
        0x08000424:    40010800    ...@    DCD    1073809408
        0x08000428:    04040004    ....    DCD    67371012
        0x0800042c:    4001380c    .8.@    DCD    1073821708
    $t
    i.prvUsartReceiveData
    prvUsartReceiveData
        0x08000430:    e007        ..      B        0x8000442 ; prvUsartReceiveData + 18
        0x08000432:    6803        .h      LDR      r3,[r0,#0]
        0x08000434:    f3c31340    ..@.    UBFX     r3,r3,#5,#1
        0x08000438:    2b00        .+      CMP      r3,#0
        0x0800043a:    d0fa        ..      BEQ      0x8000432 ; prvUsartReceiveData + 2
        0x0800043c:    6843        Ch      LDR      r3,[r0,#4]
        0x0800043e:    f8013b01    ...;    STRB     r3,[r1],#1
        0x08000442:    1e52        R.      SUBS     r2,r2,#1
        0x08000444:    d2f5        ..      BCS      0x8000432 ; prvUsartReceiveData + 2
        0x08000446:    4770        pG      BX       lr
    $d.realdata
    Region$$Table$$Base
        0x08000448:    08000458    X...    DCD    134218840
        0x0800044c:    20000000    ...     DCD    536870912
        0x08000450:    00000360    `...    DCD    864
        0x08000454:    0800004c    L...    DCD    134217804
    Region$$Table$$Limit

** Section #2 'RW_IRAM1' (SHT_NOBITS) [SHF_ALLOC + SHF_WRITE]
    Size   : 864 bytes (alignment 8)
    Address: 0x20000000


** Section #3 '.debug_abbrev' (SHT_PROGBITS)
    Size   : 1476 bytes


** Section #4 '.debug_frame' (SHT_PROGBITS)
    Size   : 744 bytes


** Section #5 '.debug_info' (SHT_PROGBITS)
    Size   : 29380 bytes


** Section #6 '.debug_line' (SHT_PROGBITS)
    Size   : 3460 bytes


** Section #7 '.debug_loc' (SHT_PROGBITS)
    Size   : 572 bytes


** Section #8 '.debug_macinfo' (SHT_PROGBITS)
    Size   : 350748 bytes


** Section #9 '.debug_pubnames' (SHT_PROGBITS)
    Size   : 101 bytes


** Section #10 '.symtab' (SHT_SYMTAB)
    Size   : 3872 bytes (alignment 4)
    String table #11 '.strtab'
    Last local symbol no. 165


** Section #11 '.strtab' (SHT_STRTAB)
    Size   : 4412 bytes


** Section #12 '.note' (SHT_NOTE)
    Size   : 24 bytes (alignment 4)


** Section #13 '.comment' (SHT_PROGBITS)
    Size   : 13144 bytes


** Section #14 '.shstrtab' (SHT_STRTAB)
    Size   : 156 bytes


